target datalayout = "e-m:e-p270:32:32-p271:32:32-p272:64:64-i64:64-i128:128-f80:128-n8:16:32:64-S128"
target triple = "x86_64-pc-linux-gnu"

%"class.testing::internal::TestEventRepeater" = type { %"class.testing::TestEventListener", i8, %"class.std::vector.85" }
%"class.testing::TestEventListener" = type { ptr }
%"class.std::vector.85" = type { %"struct.std::_Vector_base.86" }
%"struct.std::_Vector_base.86" = type { %"struct.std::_Vector_base<testing::TestEventListener *, std::allocator<testing::TestEventListener *>>::_Vector_impl" }
%"struct.std::_Vector_base<testing::TestEventListener *, std::allocator<testing::TestEventListener *>>::_Vector_impl" = type { %"struct.std::_Vector_base<testing::TestEventListener *, std::allocator<testing::TestEventListener *>>::_Vector_impl_data" }
%"struct.std::_Vector_base<testing::TestEventListener *, std::allocator<testing::TestEventListener *>>::_Vector_impl_data" = type { ptr, ptr, ptr }

; Function Attrs: mustprogress nounwind uwtable
define linkonce_odr hidden noundef nonnull align 8 dereferenceable(8) ptr @_ZNSt6vectorIPN7testing17TestEventListenerESaIS2_EEixEm(ptr noundef nonnull align 8 dereferenceable(24) %0, i64 noundef %1) #7 comdat align 2 {
  %3 = alloca ptr, align 8
  %4 = alloca i64, align 8
  store ptr %0, ptr %3, align 8, !tbaa !429
  store i64 %1, ptr %4, align 8, !tbaa !78
  %5 = load ptr, ptr %3, align 8
  %6 = getelementptr inbounds nuw %"struct.std::_Vector_base.86", ptr %5, i32 0, i32 0
  %7 = getelementptr inbounds nuw %"struct.std::_Vector_base<testing::TestEventListener *, std::allocator<testing::TestEventListener *>>::_Vector_impl_data", ptr %6, i32 0, i32 0
  %8 = load ptr, ptr %7, align 8, !tbaa !431
  %9 = load i64, ptr %4, align 8, !tbaa !78
  %10 = getelementptr inbounds nuw ptr, ptr %8, i64 %9
  ret ptr %10
}

; Function Attrs: mustprogress nounwind uwtable
define linkonce_odr hidden noundef i64 @_ZNKSt6vectorIPN7testing17TestEventListenerESaIS2_EE4sizeEv(ptr noundef nonnull align 8 dereferenceable(24) %0) #7 comdat align 2 {
  %2 = alloca ptr, align 8
  store ptr %0, ptr %2, align 8, !tbaa !429
  %3 = load ptr, ptr %2, align 8
  %4 = getelementptr inbounds nuw %"struct.std::_Vector_base.86", ptr %3, i32 0, i32 0
  %5 = getelementptr inbounds nuw %"struct.std::_Vector_base<testing::TestEventListener *, std::allocator<testing::TestEventListener *>>::_Vector_impl_data", ptr %4, i32 0, i32 1
  %6 = load ptr, ptr %5, align 8, !tbaa !434
  %7 = getelementptr inbounds nuw %"struct.std::_Vector_base.86", ptr %3, i32 0, i32 0
  %8 = getelementptr inbounds nuw %"struct.std::_Vector_base<testing::TestEventListener *, std::allocator<testing::TestEventListener *>>::_Vector_impl_data", ptr %7, i32 0, i32 0
  %9 = load ptr, ptr %8, align 8, !tbaa !431
  %10 = ptrtoint ptr %6 to i64
  %11 = ptrtoint ptr %9 to i64
  %12 = sub i64 %10, %11
  %13 = sdiv exact i64 %12, 8
  ret i64 %13
}

; Function Attrs: mustprogress uwtable
define hidden void @_ZN7testing8internal17TestEventRepeater18OnTestIterationEndERKNS_8UnitTestEi(ptr noundef nonnull align 8 dereferenceable(40) %0, ptr noundef nonnull align 8 dereferenceable(72) %1, i32 noundef %2) unnamed_addr #6 align 2 {
  %4 = alloca ptr, align 8
  %5 = alloca ptr, align 8
  %6 = alloca i32, align 4
  %7 = alloca i32, align 4
  store ptr %0, ptr %4, align 8, !tbaa !428
  store ptr %1, ptr %5, align 8, !tbaa !55
  store i32 %2, ptr %6, align 4, !tbaa !8
  %8 = load ptr, ptr %4, align 8
  %9 = getelementptr inbounds nuw %"class.testing::internal::TestEventRepeater", ptr %8, i32 0, i32 1
  %10 = load i8, ptr %9, align 8, !tbaa !446, !range !17, !noundef !18
  %11 = trunc i8 %10 to i1
  br i1 %11, label %12, label %36

12:                                               ; preds = %3
  call void @llvm.lifetime.start.p0(i64 4, ptr %7) #3
  %13 = getelementptr inbounds nuw %"class.testing::internal::TestEventRepeater", ptr %8, i32 0, i32 2
  %14 = call noundef i64 @_ZNKSt6vectorIPN7testing17TestEventListenerESaIS2_EE4sizeEv(ptr noundef nonnull align 8 dereferenceable(24) %13) #3
  %15 = trunc i64 %14 to i32
  %16 = sub nsw i32 %15, 1
  store i32 %16, ptr %7, align 4, !tbaa !8
  br label %17

17:                                               ; preds = %32, %12
  %18 = load i32, ptr %7, align 4, !tbaa !8
  %19 = icmp sge i32 %18, 0
  br i1 %19, label %21, label %20

20:                                               ; preds = %17
  call void @llvm.lifetime.end.p0(i64 4, ptr %7) #3
  br label %35

21:                                               ; preds = %17
  %22 = getelementptr inbounds nuw %"class.testing::internal::TestEventRepeater", ptr %8, i32 0, i32 2
  %23 = load i32, ptr %7, align 4, !tbaa !8
  %24 = sext i32 %23 to i64
  %25 = call noundef nonnull align 8 dereferenceable(8) ptr @_ZNSt6vectorIPN7testing17TestEventListenerESaIS2_EEixEm(ptr noundef nonnull align 8 dereferenceable(24) %22, i64 noundef %24) #3
  %26 = load ptr, ptr %25, align 8, !tbaa !403
  %27 = load ptr, ptr %5, align 8, !tbaa !55
  %28 = load i32, ptr %6, align 4, !tbaa !8
  %29 = load ptr, ptr %26, align 8, !tbaa !33
  %30 = getelementptr inbounds ptr, ptr %29, i64 13
  %31 = load ptr, ptr %30, align 8
  call void %31(ptr noundef nonnull align 8 dereferenceable(8) %26, ptr noundef nonnull align 8 dereferenceable(72) %27, i32 noundef %28)
  br label %32

32:                                               ; preds = %21
  %33 = load i32, ptr %7, align 4, !tbaa !8
  %34 = add nsw i32 %33, -1
  store i32 %34, ptr %7, align 4, !tbaa !8
  br label %17, !llvm.loop !464

35:                                               ; preds = %20
  br label %36

36:                                               ; preds = %35, %3
  ret void
}